target datalayout = "e-m:e-p270:32:32-p271:32:32-p272:64:64-i64:64-i128:128-f80:128-n8:16:32:64-S128"
target triple = "x86_64-pc-linux-gnu"

%struct.nstime_t = type { i64, i32 }
%struct._address = type { i32, i32, ptr, ptr }
%struct._conversation_item_t = type { ptr, %struct._address, %struct._address, i32, i32, i32, i32, i64, i64, i64, i64, i64, i64, i64, i64, %struct.nstime_t, %struct.nstime_t, %struct.nstime_t, i32 }

@.str.11 = private unnamed_addr constant [12 x i8] c"tcp.srcport\00", align 1
@.str.13 = private unnamed_addr constant [12 x i8] c"tcp.dstport\00", align 1
@.str.15 = private unnamed_addr constant [9 x i8] c"tcp.port\00", align 1
@.str.968 = private unnamed_addr constant [8 x i8] c"INVALID\00", align 1
@.str.969 = private unnamed_addr constant [7 x i8] c"ip.src\00", align 1
@.str.970 = private unnamed_addr constant [9 x i8] c"ipv6.src\00", align 1
@.str.971 = private unnamed_addr constant [7 x i8] c"ip.dst\00", align 1
@.str.972 = private unnamed_addr constant [9 x i8] c"ipv6.dst\00", align 1
@.str.973 = private unnamed_addr constant [8 x i8] c"ip.addr\00", align 1
@.str.974 = private unnamed_addr constant [10 x i8] c"ipv6.addr\00", align 1

; Function Attrs: nounwind uwtable
define internal ptr @tcp_conv_get_filter_type(ptr noundef %0, i32 noundef %1) #0 {
  %3 = alloca ptr, align 8
  %4 = alloca ptr, align 8
  %5 = alloca i32, align 4
  store ptr %0, ptr %4, align 8
  store i32 %1, ptr %5, align 4
  %6 = load i32, ptr %5, align 4
  %7 = icmp eq i32 %6, 3
  br i1 %7, label %8, label %9

8:                                                ; preds = %2
  store ptr @.str.11, ptr %3, align 8
  br label %76

9:                                                ; preds = %2
  %10 = load i32, ptr %5, align 4
  %11 = icmp eq i32 %10, 4
  br i1 %11, label %12, label %13

12:                                               ; preds = %9
  store ptr @.str.13, ptr %3, align 8
  br label %76

13:                                               ; preds = %9
  %14 = load i32, ptr %5, align 4
  %15 = icmp eq i32 %14, 5
  br i1 %15, label %16, label %17

16:                                               ; preds = %13
  store ptr @.str.15, ptr %3, align 8
  br label %76

17:                                               ; preds = %13
  %18 = load ptr, ptr %4, align 8
  %19 = icmp ne ptr %18, null
  br i1 %19, label %21, label %20

20:                                               ; preds = %17
  store ptr @.str.968, ptr %3, align 8
  br label %76

21:                                               ; preds = %17
  %22 = load i32, ptr %5, align 4
  %23 = icmp eq i32 %22, 0
  br i1 %23, label %24, label %39

24:                                               ; preds = %21
  %25 = load ptr, ptr %4, align 8
  %26 = getelementptr inbounds %struct._conversation_item_t, ptr %25, i32 0, i32 1
  %27 = getelementptr inbounds %struct._address, ptr %26, i32 0, i32 0
  %28 = load i32, ptr %27, align 8
  %29 = icmp eq i32 %28, 2
  br i1 %29, label %30, label %31

30:                                               ; preds = %24
  store ptr @.str.969, ptr %3, align 8
  br label %76

31:                                               ; preds = %24
  %32 = load ptr, ptr %4, align 8
  %33 = getelementptr inbounds %struct._conversation_item_t, ptr %32, i32 0, i32 1
  %34 = getelementptr inbounds %struct._address, ptr %33, i32 0, i32 0
  %35 = load i32, ptr %34, align 8
  %36 = icmp eq i32 %35, 3
  br i1 %36, label %37, label %38

37:                                               ; preds = %31
  store ptr @.str.970, ptr %3, align 8
  br label %76

38:                                               ; preds = %31
  br label %39

39:                                               ; preds = %38, %21
  %40 = load i32, ptr %5, align 4
  %41 = icmp eq i32 %40, 1
  br i1 %41, label %42, label %57

42:                                               ; preds = %39
  %43 = load ptr, ptr %4, align 8
  %44 = getelementptr inbounds %struct._conversation_item_t, ptr %43, i32 0, i32 2
  %45 = getelementptr inbounds %struct._address, ptr %44, i32 0, i32 0
  %46 = load i32, ptr %45, align 8
  %47 = icmp eq i32 %46, 2
  br i1 %47, label %48, label %49

48:                                               ; preds = %42
  store ptr @.str.971, ptr %3, align 8
  br label %76

49:                                               ; preds = %42
  %50 = load ptr, ptr %4, align 8
  %51 = getelementptr inbounds %struct._conversation_item_t, ptr %50, i32 0, i32 2
  %52 = getelementptr inbounds %struct._address, ptr %51, i32 0, i32 0
  %53 = load i32, ptr %52, align 8
  %54 = icmp eq i32 %53, 3
  br i1 %54, label %55, label %56

55:                                               ; preds = %49
  store ptr @.str.972, ptr %3, align 8
  br label %76

56:                                               ; preds = %49
  br label %57

57:                                               ; preds = %56, %39
  %58 = load i32, ptr %5, align 4
  %59 = icmp eq i32 %58, 2
  br i1 %59, label %60, label %75

60:                                               ; preds = %57
  %61 = load ptr, ptr %4, align 8
  %62 = getelementptr inbounds %struct._conversation_item_t, ptr %61, i32 0, i32 1
  %63 = getelementptr inbounds %struct._address, ptr %62, i32 0, i32 0
  %64 = load i32, ptr %63, align 8
  %65 = icmp eq i32 %64, 2
  br i1 %65, label %66, label %67

66:                                               ; preds = %60
  store ptr @.str.973, ptr %3, align 8
  br label %76

67:                                               ; preds = %60
  %68 = load ptr, ptr %4, align 8
  %69 = getelementptr inbounds %struct._conversation_item_t, ptr %68, i32 0, i32 1
  %70 = getelementptr inbounds %struct._address, ptr %69, i32 0, i32 0
  %71 = load i32, ptr %70, align 8
  %72 = icmp eq i32 %71, 3
  br i1 %72, label %73, label %74

73:                                               ; preds = %67
  store ptr @.str.974, ptr %3, align 8
  br label %76

74:                                               ; preds = %67
  br label %75

75:                                               ; preds = %74, %57
  store ptr @.str.968, ptr %3, align 8
  br label %76

76:                                               ; preds = %75, %73, %66, %55, %48, %37, %30, %20, %16, %12, %8
  %77 = load ptr, ptr %3, align 8
  ret ptr %77
}