; Function Attrs: mustprogress nofree norecurse nosync nounwind willreturn memory(argmem: read) uwtable
define internal nonnull ptr @tcp_conv_get_filter_type(ptr noundef readonly %0, i32 noundef %1) #4 {
  %switch.tableidx = add i32 %1, -3
  %3 = icmp ult i32 %switch.tableidx, 3
  br i1 %3, label %switch.lookup, label %4

4:                                                ; preds = %2
  %.not = icmp eq ptr %0, null
  br i1 %.not, label %16, label %5

5:                                                ; preds = %4
  switch i32 %1, label %16 [
    i32 0, label %6
    i32 1, label %9
    i32 2, label %12
  ]

6:                                                ; preds = %5
  %7 = getelementptr inbounds nuw i8, ptr %0, i64 8
  %8 = load i32, ptr %7, align 8
  %switch.selectcmp20 = icmp eq i32 %8, 3
  %switch.select21 = select i1 %switch.selectcmp20, ptr @.str.970, ptr @.str.968
  %switch.selectcmp22 = icmp eq i32 %8, 2
  %switch.select23 = select i1 %switch.selectcmp22, ptr @.str.969, ptr %switch.select21
  br label %16

9:                                                ; preds = %5
  %10 = getelementptr inbounds nuw i8, ptr %0, i64 32
  %11 = load i32, ptr %10, align 8
  %switch.selectcmp24 = icmp eq i32 %11, 3
  %switch.select25 = select i1 %switch.selectcmp24, ptr @.str.972, ptr @.str.968
  %switch.selectcmp26 = icmp eq i32 %11, 2
  %switch.select27 = select i1 %switch.selectcmp26, ptr @.str.971, ptr %switch.select25
  br label %16

12:                                               ; preds = %5
  %13 = getelementptr inbounds nuw i8, ptr %0, i64 8
  %14 = load i32, ptr %13, align 8
  %switch.selectcmp = icmp eq i32 %14, 3
  %switch.select = select i1 %switch.selectcmp, ptr @.str.974, ptr @.str.968
  %switch.selectcmp18 = icmp eq i32 %14, 2
  %switch.select19 = select i1 %switch.selectcmp18, ptr @.str.973, ptr %switch.select
  br label %16

switch.lookup:                                    ; preds = %2
  %15 = zext nneg i32 %switch.tableidx to i64
  %switch.gep = getelementptr inbounds nuw [3 x ptr], ptr @switch.table.tcp_endpoint_get_filter_type, i64 0, i64 %15
  %switch.load = load ptr, ptr %switch.gep, align 8
  br label %16

16:                                               ; preds = %switch.lookup, %9, %6, %5, %12, %4
  %.0 = phi ptr [ @.str.968, %4 ], [ %switch.select19, %12 ], [ @.str.968, %5 ], [ %switch.select23, %6 ], [ %switch.select27, %9 ], [ %switch.load, %switch.lookup ]
  ret ptr %.0
}